; Function Attrs: mustprogress uwtable
define dso_local void @_ZN5ImGui17RenderTextWrappedE6ImVec2PKcS2_f(<2 x float> %0, ptr noundef %1, ptr noundef %2, float noundef %3) local_unnamed_addr #12 {
  %5 = alloca %struct.ImVec2, align 8
  store <2 x float> %0, ptr %5, align 8
  %6 = load ptr, ptr @GImGui, align 8, !tbaa !211
  %7 = getelementptr inbounds nuw i8, ptr %6, i64 4928
  %8 = load ptr, ptr %7, align 8, !tbaa !308
  %.not = icmp eq ptr %2, null
  br i1 %.not, label %9, label %12

9:                                                ; preds = %4
  %10 = tail call i64 @strlen(ptr noundef nonnull dereferenceable(1) %1) #62
  %11 = getelementptr inbounds nuw i8, ptr %1, i64 %10
  br label %12

12:                                               ; preds = %9, %4
  %.0 = phi ptr [ %2, %4 ], [ %11, %9 ]
  %.not17 = icmp eq ptr %1, %.0
  br i1 %.not17, label %62, label %13

13:                                               ; preds = %12
  %14 = getelementptr inbounds nuw i8, ptr %8, i64 688
  %15 = load ptr, ptr %14, align 8, !tbaa !447
  %16 = getelementptr inbounds nuw i8, ptr %6, i64 4176
  %17 = load ptr, ptr %16, align 8, !tbaa !448
  %18 = getelementptr inbounds nuw i8, ptr %6, i64 4184
  %19 = load float, ptr %18, align 8, !tbaa !449
  %20 = getelementptr inbounds nuw i8, ptr %6, i64 3016
  %21 = getelementptr inbounds nuw i8, ptr %6, i64 3256
  %.sroa.0.0.copyload.i = load float, ptr %21, align 4, !tbaa !81
  %.sroa.4.0..sroa_idx.i = getelementptr inbounds nuw i8, ptr %6, i64 3260
  %.sroa.4.0.copyload.i = load float, ptr %.sroa.4.0..sroa_idx.i, align 4, !tbaa !81
  %.sroa.5.0..sroa_idx.i = getelementptr inbounds nuw i8, ptr %6, i64 3264
  %.sroa.5.0.copyload.i = load float, ptr %.sroa.5.0..sroa_idx.i, align 4, !tbaa !81
  %.sroa.6.0..sroa_idx.i = getelementptr inbounds nuw i8, ptr %6, i64 3268
  %.sroa.6.0.copyload.i = load float, ptr %.sroa.6.0..sroa_idx.i, align 4, !tbaa !81
  %22 = load float, ptr %20, align 4, !tbaa !4
  %23 = fmul float %.sroa.6.0.copyload.i, %22
  %24 = fcmp olt float %.sroa.0.0.copyload.i, 0.000000e+00
  %25 = fcmp ogt float %.sroa.0.0.copyload.i, 1.000000e+00
  %26 = select i1 %25, float 1.000000e+00, float %.sroa.0.0.copyload.i
  %27 = fmul float %26, 2.550000e+02
  %28 = fadd float %27, 5.000000e-01
  %29 = select i1 %24, float 5.000000e-01, float %28
  %30 = fptosi float %29 to i32
  %31 = fcmp olt float %.sroa.4.0.copyload.i, 0.000000e+00
  %32 = fcmp ogt float %.sroa.4.0.copyload.i, 1.000000e+00
  %33 = select i1 %32, float 1.000000e+00, float %.sroa.4.0.copyload.i
  %34 = fmul float %33, 2.550000e+02
  %35 = fadd float %34, 5.000000e-01
  %36 = select i1 %31, float 5.000000e-01, float %35
  %37 = fptosi float %36 to i32
  %38 = shl i32 %37, 8
  %39 = or i32 %38, %30
  %40 = fcmp olt float %.sroa.5.0.copyload.i, 0.000000e+00
  %41 = fcmp ogt float %.sroa.5.0.copyload.i, 1.000000e+00
  %42 = select i1 %41, float 1.000000e+00, float %.sroa.5.0.copyload.i
  %43 = fmul float %42, 2.550000e+02
  %44 = fadd float %43, 5.000000e-01
  %45 = select i1 %40, float 5.000000e-01, float %44
  %46 = fptosi float %45 to i32
  %47 = shl i32 %46, 16
  %48 = or i32 %39, %47
  %49 = fcmp olt float %23, 0.000000e+00
  %50 = fcmp ogt float %23, 1.000000e+00
  %51 = select i1 %50, float 1.000000e+00, float %23
  %52 = fmul float %51, 2.550000e+02
  %53 = fadd float %52, 5.000000e-01
  %54 = select i1 %49, float 5.000000e-01, float %53
  %55 = fptosi float %54 to i32
  %56 = shl i32 %55, 24
  %57 = or i32 %48, %56
  call void @_ZN10ImDrawList7AddTextEPK6ImFontfRK6ImVec2jPKcS7_fPK6ImVec4(ptr noundef nonnull align 8 dereferenceable(200) %15, ptr noundef %17, float noundef %19, ptr noundef nonnull align 4 dereferenceable(8) %5, i32 noundef %57, ptr noundef %1, ptr noundef nonnull %.0, float noundef %3, ptr noundef null)
  %58 = getelementptr inbounds nuw i8, ptr %6, i64 9712
  %59 = load i8, ptr %58, align 8, !tbaa !388, !range !92, !noundef !93
  %60 = trunc nuw i8 %59 to i1
  br i1 %60, label %61, label %62

61:                                               ; preds = %13
  call void @_ZN5ImGui15LogRenderedTextEPK6ImVec2PKcS4_(ptr noundef nonnull %5, ptr noundef %1, ptr noundef nonnull %.0)
  br label %62

62:                                               ; preds = %13, %61, %12
  ret void
}